target datalayout = "e-m:e-p270:32:32-p271:32:32-p272:64:64-i64:64-i128:128-f80:128-n8:16:32:64-S128"
target triple = "x86_64-pc-linux-gnu"

%struct.List = type { i32, i32, i32, ptr, [0 x %union.ListCell] }
%union.ListCell = type { ptr }
%struct.ExplainState = type { ptr, i8, i8, i8, i8, i8, i8, i8, i8, i8, i8, i32, i32, i32, ptr, ptr, ptr, ptr, ptr, ptr, i8, i32, ptr }
%struct.StringInfoData = type { ptr, i32, i32, i32 }

@.str.47 = private unnamed_addr constant [5 x i8] c"%s: \00", align 1
@.str.59 = private unnamed_addr constant [3 x i8] c": \00", align 1
@.str.393 = private unnamed_addr constant [11 x i8] c"%s: %s %s\0A\00", align 1
@.str.394 = private unnamed_addr constant [8 x i8] c"%s: %s\0A\00", align 1

; Function Attrs: inlinehint nounwind uwtable
define internal ptr @list_nth_cell(ptr noundef %0, i32 noundef %1) #6 {
  %3 = alloca ptr, align 8
  %4 = alloca i32, align 4
  store ptr %0, ptr %3, align 8
  store i32 %1, ptr %4, align 4
  %5 = load ptr, ptr %3, align 8
  %6 = getelementptr inbounds nuw %struct.List, ptr %5, i32 0, i32 3
  %7 = load ptr, ptr %6, align 8
  %8 = load i32, ptr %4, align 4
  %9 = sext i32 %8 to i64
  %10 = getelementptr inbounds %union.ListCell, ptr %7, i64 %9
  ret ptr %10
}

; Function Attrs: nounwind uwtable
define internal void @escape_yaml(ptr noundef %0, ptr noundef %1) #0 {
  %3 = alloca ptr, align 8
  %4 = alloca ptr, align 8
  store ptr %0, ptr %3, align 8
  store ptr %1, ptr %4, align 8
  %5 = load ptr, ptr %3, align 8
  %6 = load ptr, ptr %4, align 8
  call void @escape_json(ptr noundef %5, ptr noundef %6)
  ret void
}

; Function Attrs: nounwind uwtable
define internal void @ExplainYAMLLineStarting(ptr noundef %0) #0 {
  %2 = alloca ptr, align 8
  store ptr %0, ptr %2, align 8
  %3 = load ptr, ptr %2, align 8
  %4 = getelementptr inbounds nuw %struct.ExplainState, ptr %3, i32 0, i32 14
  %5 = load ptr, ptr %4, align 8
  %6 = call ptr @list_nth_cell(ptr noundef %5, i32 noundef 0)
  %7 = load i32, ptr %6, align 8
  %8 = icmp eq i32 %7, 0
  br i1 %8, label %9, label %14

9:                                                ; preds = %1
  %10 = load ptr, ptr %2, align 8
  %11 = getelementptr inbounds nuw %struct.ExplainState, ptr %10, i32 0, i32 14
  %12 = load ptr, ptr %11, align 8
  %13 = call ptr @list_nth_cell(ptr noundef %12, i32 noundef 0)
  store i32 1, ptr %13, align 8
  br label %25

14:                                               ; preds = %1
  %15 = load ptr, ptr %2, align 8
  %16 = getelementptr inbounds nuw %struct.ExplainState, ptr %15, i32 0, i32 0
  %17 = load ptr, ptr %16, align 8
  call void @appendStringInfoChar(ptr noundef %17, i8 noundef signext 10)
  %18 = load ptr, ptr %2, align 8
  %19 = getelementptr inbounds nuw %struct.ExplainState, ptr %18, i32 0, i32 0
  %20 = load ptr, ptr %19, align 8
  %21 = load ptr, ptr %2, align 8
  %22 = getelementptr inbounds nuw %struct.ExplainState, ptr %21, i32 0, i32 13
  %23 = load i32, ptr %22, align 4
  %24 = mul i32 %23, 2
  call void @appendStringInfoSpaces(ptr noundef %20, i32 noundef %24)
  br label %25

25:                                               ; preds = %14, %9
  ret void
}

; Function Attrs: nounwind uwtable
define internal void @ExplainJSONLineEnding(ptr noundef %0) #0 {
  %2 = alloca ptr, align 8
  store ptr %0, ptr %2, align 8
  %3 = load ptr, ptr %2, align 8
  %4 = getelementptr inbounds nuw %struct.ExplainState, ptr %3, i32 0, i32 14
  %5 = load ptr, ptr %4, align 8
  %6 = call ptr @list_nth_cell(ptr noundef %5, i32 noundef 0)
  %7 = load i32, ptr %6, align 8
  %8 = icmp ne i32 %7, 0
  br i1 %8, label %9, label %13

9:                                                ; preds = %1
  %10 = load ptr, ptr %2, align 8
  %11 = getelementptr inbounds nuw %struct.ExplainState, ptr %10, i32 0, i32 0
  %12 = load ptr, ptr %11, align 8
  call void @appendStringInfoChar(ptr noundef %12, i8 noundef signext 44)
  br label %18

13:                                               ; preds = %1
  %14 = load ptr, ptr %2, align 8
  %15 = getelementptr inbounds nuw %struct.ExplainState, ptr %14, i32 0, i32 14
  %16 = load ptr, ptr %15, align 8
  %17 = call ptr @list_nth_cell(ptr noundef %16, i32 noundef 0)
  store i32 1, ptr %17, align 8
  br label %18

18:                                               ; preds = %13, %9
  %19 = load ptr, ptr %2, align 8
  %20 = getelementptr inbounds nuw %struct.ExplainState, ptr %19, i32 0, i32 0
  %21 = load ptr, ptr %20, align 8
  call void @appendStringInfoChar(ptr noundef %21, i8 noundef signext 10)
  ret void
}

; Function Attrs: nounwind uwtable
define internal void @ExplainIndentText(ptr noundef %0) #0 {
  %2 = alloca ptr, align 8
  store ptr %0, ptr %2, align 8
  %3 = load ptr, ptr %2, align 8
  %4 = getelementptr inbounds nuw %struct.ExplainState, ptr %3, i32 0, i32 0
  %5 = load ptr, ptr %4, align 8
  %6 = getelementptr inbounds nuw %struct.StringInfoData, ptr %5, i32 0, i32 1
  %7 = load i32, ptr %6, align 8
  %8 = icmp eq i32 %7, 0
  br i1 %8, label %26, label %9

9:                                                ; preds = %1
  %10 = load ptr, ptr %2, align 8
  %11 = getelementptr inbounds nuw %struct.ExplainState, ptr %10, i32 0, i32 0
  %12 = load ptr, ptr %11, align 8
  %13 = getelementptr inbounds nuw %struct.StringInfoData, ptr %12, i32 0, i32 0
  %14 = load ptr, ptr %13, align 8
  %15 = load ptr, ptr %2, align 8
  %16 = getelementptr inbounds nuw %struct.ExplainState, ptr %15, i32 0, i32 0
  %17 = load ptr, ptr %16, align 8
  %18 = getelementptr inbounds nuw %struct.StringInfoData, ptr %17, i32 0, i32 1
  %19 = load i32, ptr %18, align 8
  %20 = sub i32 %19, 1
  %21 = sext i32 %20 to i64
  %22 = getelementptr inbounds i8, ptr %14, i64 %21
  %23 = load i8, ptr %22, align 1
  %24 = sext i8 %23 to i32
  %25 = icmp eq i32 %24, 10
  br i1 %25, label %26, label %34

26:                                               ; preds = %9, %1
  %27 = load ptr, ptr %2, align 8
  %28 = getelementptr inbounds nuw %struct.ExplainState, ptr %27, i32 0, i32 0
  %29 = load ptr, ptr %28, align 8
  %30 = load ptr, ptr %2, align 8
  %31 = getelementptr inbounds nuw %struct.ExplainState, ptr %30, i32 0, i32 13
  %32 = load i32, ptr %31, align 4
  %33 = mul i32 %32, 2
  call void @appendStringInfoSpaces(ptr noundef %29, i32 noundef %33)
  br label %34

34:                                               ; preds = %26, %9
  ret void
}

; Function Attrs: nounwind uwtable
define internal void @ExplainProperty(ptr noundef %0, ptr noundef %1, ptr noundef %2, i1 noundef zeroext %3, ptr noundef %4) #0 {
  %6 = alloca ptr, align 8
  %7 = alloca ptr, align 8
  %8 = alloca ptr, align 8
  %9 = alloca i8, align 1
  %10 = alloca ptr, align 8
  %11 = alloca ptr, align 8
  store ptr %0, ptr %6, align 8
  store ptr %1, ptr %7, align 8
  store ptr %2, ptr %8, align 8
  %12 = zext i1 %3 to i8
  store i8 %12, ptr %9, align 1
  store ptr %4, ptr %10, align 8
  %13 = load ptr, ptr %10, align 8
  %14 = getelementptr inbounds nuw %struct.ExplainState, ptr %13, i32 0, i32 12
  %15 = load i32, ptr %14, align 8
  switch i32 %15, label %104 [
    i32 0, label %16
    i32 1, label %34
    i32 2, label %56
    i32 3, label %85
  ]

16:                                               ; preds = %5
  %17 = load ptr, ptr %10, align 8
  call void @ExplainIndentText(ptr noundef %17)
  %18 = load ptr, ptr %7, align 8
  %19 = icmp ne ptr %18, null
  br i1 %19, label %20, label %27

20:                                               ; preds = %16
  %21 = load ptr, ptr %10, align 8
  %22 = getelementptr inbounds nuw %struct.ExplainState, ptr %21, i32 0, i32 0
  %23 = load ptr, ptr %22, align 8
  %24 = load ptr, ptr %6, align 8
  %25 = load ptr, ptr %8, align 8
  %26 = load ptr, ptr %7, align 8
  call void (ptr, ptr, ...) @appendStringInfo(ptr noundef %23, ptr noundef @.str.393, ptr noundef %24, ptr noundef %25, ptr noundef %26)
  br label %33

27:                                               ; preds = %16
  %28 = load ptr, ptr %10, align 8
  %29 = getelementptr inbounds nuw %struct.ExplainState, ptr %28, i32 0, i32 0
  %30 = load ptr, ptr %29, align 8
  %31 = load ptr, ptr %6, align 8
  %32 = load ptr, ptr %8, align 8
  call void (ptr, ptr, ...) @appendStringInfo(ptr noundef %30, ptr noundef @.str.394, ptr noundef %31, ptr noundef %32)
  br label %33

33:                                               ; preds = %27, %20
  br label %104

34:                                               ; preds = %5
  call void @llvm.lifetime.start.p0(i64 8, ptr %11) #10
  %35 = load ptr, ptr %10, align 8
  %36 = getelementptr inbounds nuw %struct.ExplainState, ptr %35, i32 0, i32 0
  %37 = load ptr, ptr %36, align 8
  %38 = load ptr, ptr %10, align 8
  %39 = getelementptr inbounds nuw %struct.ExplainState, ptr %38, i32 0, i32 13
  %40 = load i32, ptr %39, align 4
  %41 = mul i32 %40, 2
  call void @appendStringInfoSpaces(ptr noundef %37, i32 noundef %41)
  %42 = load ptr, ptr %6, align 8
  %43 = load ptr, ptr %10, align 8
  call void @ExplainXMLTag(ptr noundef %42, i32 noundef 4, ptr noundef %43)
  %44 = load ptr, ptr %8, align 8
  %45 = call ptr @escape_xml(ptr noundef %44)
  store ptr %45, ptr %11, align 8
  %46 = load ptr, ptr %10, align 8
  %47 = getelementptr inbounds nuw %struct.ExplainState, ptr %46, i32 0, i32 0
  %48 = load ptr, ptr %47, align 8
  %49 = load ptr, ptr %11, align 8
  call void @appendStringInfoString(ptr noundef %48, ptr noundef %49)
  %50 = load ptr, ptr %11, align 8
  call void @pfree(ptr noundef %50)
  %51 = load ptr, ptr %6, align 8
  %52 = load ptr, ptr %10, align 8
  call void @ExplainXMLTag(ptr noundef %51, i32 noundef 5, ptr noundef %52)
  %53 = load ptr, ptr %10, align 8
  %54 = getelementptr inbounds nuw %struct.ExplainState, ptr %53, i32 0, i32 0
  %55 = load ptr, ptr %54, align 8
  call void @appendStringInfoChar(ptr noundef %55, i8 noundef signext 10)
  call void @llvm.lifetime.end.p0(i64 8, ptr %11) #10
  br label %104

56:                                               ; preds = %5
  %57 = load ptr, ptr %10, align 8
  call void @ExplainJSONLineEnding(ptr noundef %57)
  %58 = load ptr, ptr %10, align 8
  %59 = getelementptr inbounds nuw %struct.ExplainState, ptr %58, i32 0, i32 0
  %60 = load ptr, ptr %59, align 8
  %61 = load ptr, ptr %10, align 8
  %62 = getelementptr inbounds nuw %struct.ExplainState, ptr %61, i32 0, i32 13
  %63 = load i32, ptr %62, align 4
  %64 = mul i32 %63, 2
  call void @appendStringInfoSpaces(ptr noundef %60, i32 noundef %64)
  %65 = load ptr, ptr %10, align 8
  %66 = getelementptr inbounds nuw %struct.ExplainState, ptr %65, i32 0, i32 0
  %67 = load ptr, ptr %66, align 8
  %68 = load ptr, ptr %6, align 8
  call void @escape_json(ptr noundef %67, ptr noundef %68)
  %69 = load ptr, ptr %10, align 8
  %70 = getelementptr inbounds nuw %struct.ExplainState, ptr %69, i32 0, i32 0
  %71 = load ptr, ptr %70, align 8
  call void @appendStringInfoString(ptr noundef %71, ptr noundef @.str.59)
  %72 = load i8, ptr %9, align 1, !range !6, !noundef !7
  %73 = trunc i8 %72 to i1
  br i1 %73, label %74, label %79

74:                                               ; preds = %56
  %75 = load ptr, ptr %10, align 8
  %76 = getelementptr inbounds nuw %struct.ExplainState, ptr %75, i32 0, i32 0
  %77 = load ptr, ptr %76, align 8
  %78 = load ptr, ptr %8, align 8
  call void @appendStringInfoString(ptr noundef %77, ptr noundef %78)
  br label %84

79:                                               ; preds = %56
  %80 = load ptr, ptr %10, align 8
  %81 = getelementptr inbounds nuw %struct.ExplainState, ptr %80, i32 0, i32 0
  %82 = load ptr, ptr %81, align 8
  %83 = load ptr, ptr %8, align 8
  call void @escape_json(ptr noundef %82, ptr noundef %83)
  br label %84

84:                                               ; preds = %79, %74
  br label %104

85:                                               ; preds = %5
  %86 = load ptr, ptr %10, align 8
  call void @ExplainYAMLLineStarting(ptr noundef %86)
  %87 = load ptr, ptr %10, align 8
  %88 = getelementptr inbounds nuw %struct.ExplainState, ptr %87, i32 0, i32 0
  %89 = load ptr, ptr %88, align 8
  %90 = load ptr, ptr %6, align 8
  call void (ptr, ptr, ...) @appendStringInfo(ptr noundef %89, ptr noundef @.str.47, ptr noundef %90)
  %91 = load i8, ptr %9, align 1, !range !6, !noundef !7
  %92 = trunc i8 %91 to i1
  br i1 %92, label %93, label %98

93:                                               ; preds = %85
  %94 = load ptr, ptr %10, align 8
  %95 = getelementptr inbounds nuw %struct.ExplainState, ptr %94, i32 0, i32 0
  %96 = load ptr, ptr %95, align 8
  %97 = load ptr, ptr %8, align 8
  call void @appendStringInfoString(ptr noundef %96, ptr noundef %97)
  br label %103

98:                                               ; preds = %85
  %99 = load ptr, ptr %10, align 8
  %100 = getelementptr inbounds nuw %struct.ExplainState, ptr %99, i32 0, i32 0
  %101 = load ptr, ptr %100, align 8
  %102 = load ptr, ptr %8, align 8
  call void @escape_yaml(ptr noundef %101, ptr noundef %102)
  br label %103

103:                                              ; preds = %98, %93
  br label %104

104:                                              ; preds = %5, %103, %84, %34, %33
  ret void
}