; Function Attrs: nounwind uwtable
define internal fastcc void @ExplainProperty(ptr noundef %0, ptr noundef %1, ptr noundef %2, i1 noundef zeroext %3, ptr noundef readonly captures(none) %4) unnamed_addr #0 {
  %6 = getelementptr inbounds nuw i8, ptr %4, i64 24
  %7 = load i32, ptr %6, align 8
  switch i32 %7, label %70 [
    i32 0, label %8
    i32 1, label %27
    i32 2, label %35
    i32 3, label %53
  ]

8:                                                ; preds = %5
  %9 = load ptr, ptr %4, align 8
  %10 = getelementptr inbounds nuw i8, ptr %9, i64 8
  %11 = load i32, ptr %10, align 8
  %12 = icmp eq i32 %11, 0
  br i1 %12, label %20, label %13

13:                                               ; preds = %8
  %14 = load ptr, ptr %9, align 8
  %15 = add i32 %11, -1
  %16 = sext i32 %15 to i64
  %17 = getelementptr inbounds i8, ptr %14, i64 %16
  %18 = load i8, ptr %17, align 1
  %19 = icmp eq i8 %18, 10
  br i1 %19, label %20, label %ExplainIndentText.exit

20:                                               ; preds = %13, %8
  %21 = getelementptr inbounds nuw i8, ptr %4, i64 28
  %22 = load i32, ptr %21, align 4
  %23 = shl i32 %22, 1
  tail call void @appendStringInfoSpaces(ptr noundef nonnull %9, i32 noundef %23) #13
  br label %ExplainIndentText.exit

ExplainIndentText.exit:                           ; preds = %13, %20
  %.not = icmp eq ptr %1, null
  %24 = load ptr, ptr %4, align 8
  br i1 %.not, label %26, label %25

25:                                               ; preds = %ExplainIndentText.exit
  tail call void (ptr, ptr, ...) @appendStringInfo(ptr noundef %24, ptr noundef nonnull @.str.393, ptr noundef %0, ptr noundef %2, ptr noundef nonnull %1) #13
  br label %70

26:                                               ; preds = %ExplainIndentText.exit
  tail call void (ptr, ptr, ...) @appendStringInfo(ptr noundef %24, ptr noundef nonnull @.str.394, ptr noundef %0, ptr noundef %2) #13
  br label %70

27:                                               ; preds = %5
  %28 = load ptr, ptr %4, align 8
  %29 = getelementptr inbounds nuw i8, ptr %4, i64 28
  %30 = load i32, ptr %29, align 4
  %31 = shl i32 %30, 1
  tail call void @appendStringInfoSpaces(ptr noundef %28, i32 noundef %31) #13
  tail call fastcc void @ExplainXMLTag(ptr noundef %0, i32 noundef 4, ptr noundef nonnull %4)
  %32 = tail call ptr @escape_xml(ptr noundef %2) #13
  %33 = load ptr, ptr %4, align 8
  tail call void @appendStringInfoString(ptr noundef %33, ptr noundef %32) #13
  tail call void @pfree(ptr noundef %32) #13
  tail call fastcc void @ExplainXMLTag(ptr noundef %0, i32 noundef 5, ptr noundef nonnull %4)
  %34 = load ptr, ptr %4, align 8
  tail call void @appendStringInfoChar(ptr noundef %34, i8 noundef signext 10) #13
  br label %70

35:                                               ; preds = %5
  %36 = getelementptr inbounds nuw i8, ptr %4, i64 32
  %37 = load ptr, ptr %36, align 8
  %38 = getelementptr i8, ptr %37, i64 16
  %.val4.i = load ptr, ptr %38, align 8
  %39 = load i32, ptr %.val4.i, align 8
  %.not.i = icmp eq i32 %39, 0
  br i1 %.not.i, label %42, label %40

40:                                               ; preds = %35
  %41 = load ptr, ptr %4, align 8
  tail call void @appendStringInfoChar(ptr noundef %41, i8 noundef signext 44) #13
  br label %ExplainJSONLineEnding.exit

42:                                               ; preds = %35
  store i32 1, ptr %.val4.i, align 8
  br label %ExplainJSONLineEnding.exit

ExplainJSONLineEnding.exit:                       ; preds = %40, %42
  %43 = load ptr, ptr %4, align 8
  tail call void @appendStringInfoChar(ptr noundef %43, i8 noundef signext 10) #13
  %44 = load ptr, ptr %4, align 8
  %45 = getelementptr inbounds nuw i8, ptr %4, i64 28
  %46 = load i32, ptr %45, align 4
  %47 = shl i32 %46, 1
  tail call void @appendStringInfoSpaces(ptr noundef %44, i32 noundef %47) #13
  %48 = load ptr, ptr %4, align 8
  tail call void @escape_json(ptr noundef %48, ptr noundef %0) #13
  %49 = load ptr, ptr %4, align 8
  tail call void @appendStringInfoString(ptr noundef %49, ptr noundef nonnull @.str.59) #13
  %50 = load ptr, ptr %4, align 8
  br i1 %3, label %51, label %52

51:                                               ; preds = %ExplainJSONLineEnding.exit
  tail call void @appendStringInfoString(ptr noundef %50, ptr noundef %2) #13
  br label %70

52:                                               ; preds = %ExplainJSONLineEnding.exit
  tail call void @escape_json(ptr noundef %50, ptr noundef %2) #13
  br label %70

53:                                               ; preds = %5
  %54 = getelementptr inbounds nuw i8, ptr %4, i64 32
  %55 = load ptr, ptr %54, align 8
  %56 = getelementptr i8, ptr %55, i64 16
  %.val5.i = load ptr, ptr %56, align 8
  %57 = load i32, ptr %.val5.i, align 8
  %58 = icmp eq i32 %57, 0
  br i1 %58, label %59, label %60

59:                                               ; preds = %53
  store i32 1, ptr %.val5.i, align 8
  br label %ExplainYAMLLineStarting.exit

60:                                               ; preds = %53
  %61 = load ptr, ptr %4, align 8
  tail call void @appendStringInfoChar(ptr noundef %61, i8 noundef signext 10) #13
  %62 = load ptr, ptr %4, align 8
  %63 = getelementptr inbounds nuw i8, ptr %4, i64 28
  %64 = load i32, ptr %63, align 4
  %65 = shl i32 %64, 1
  tail call void @appendStringInfoSpaces(ptr noundef %62, i32 noundef %65) #13
  br label %ExplainYAMLLineStarting.exit

ExplainYAMLLineStarting.exit:                     ; preds = %59, %60
  %66 = load ptr, ptr %4, align 8
  tail call void (ptr, ptr, ...) @appendStringInfo(ptr noundef %66, ptr noundef nonnull @.str.47, ptr noundef %0) #13
  %67 = load ptr, ptr %4, align 8
  br i1 %3, label %68, label %69

68:                                               ; preds = %ExplainYAMLLineStarting.exit
  tail call void @appendStringInfoString(ptr noundef %67, ptr noundef %2) #13
  br label %70

69:                                               ; preds = %ExplainYAMLLineStarting.exit
  tail call void @escape_json(ptr noundef %67, ptr noundef %2) #13
  br label %70

70:                                               ; preds = %68, %69, %51, %52, %25, %26, %27, %5
  ret void
}